; Function Attrs: nounwind uwtable
define void @zend_user_it_new_iterator(ptr nocapture noundef readonly %0, ptr nocapture noundef readonly %1, ptr noundef %2) local_unnamed_addr #0 {
  %4 = getelementptr inbounds i8, ptr %0, i64 368
  %5 = load ptr, ptr %4, align 8
  %6 = load ptr, ptr %5, align 8
  %7 = load ptr, ptr %1, align 8
  %8 = getelementptr inbounds i8, ptr %7, i64 16
  %9 = load ptr, ptr %8, align 8
  tail call void @zend_call_known_function(ptr noundef %6, ptr noundef %7, ptr noundef %9, ptr noundef %2, i32 noundef 0, ptr noundef null, ptr noundef null) #9
  ret void
}